target datalayout = "e-m:e-p270:32:32-p271:32:32-p272:64:64-i64:64-i128:128-f80:128-n8:16:32:64-S128"
target triple = "x86_64-pc-linux-gnu"

%struct.lexbor_bst_entry = type { ptr, ptr, ptr, ptr, ptr, i64 }

; Function Attrs: nounwind uwtable
define hidden ptr @lexbor_bst_remove(ptr noundef %0, ptr noundef %1, i64 noundef %2) #0 {
  %4 = alloca ptr, align 8
  %5 = alloca ptr, align 8
  %6 = alloca ptr, align 8
  %7 = alloca i64, align 8
  %8 = alloca ptr, align 8
  store ptr %0, ptr %5, align 8
  store ptr %1, ptr %6, align 8
  store i64 %2, ptr %7, align 8
  %9 = load ptr, ptr %6, align 8
  %10 = load ptr, ptr %9, align 8
  store ptr %10, ptr %8, align 8
  br label %11

11:                                               ; preds = %40, %3
  %12 = load ptr, ptr %8, align 8
  %13 = icmp ne ptr %12, null
  br i1 %13, label %14, label %41

14:                                               ; preds = %11
  %15 = load ptr, ptr %8, align 8
  %16 = getelementptr inbounds %struct.lexbor_bst_entry, ptr %15, i32 0, i32 5
  %17 = load i64, ptr %16, align 8
  %18 = load i64, ptr %7, align 8
  %19 = icmp eq i64 %17, %18
  br i1 %19, label %20, label %25

20:                                               ; preds = %14
  %21 = load ptr, ptr %5, align 8
  %22 = load ptr, ptr %8, align 8
  %23 = load ptr, ptr %6, align 8
  %24 = call ptr @lexbor_bst_remove_by_pointer(ptr noundef %21, ptr noundef %22, ptr noundef %23)
  store ptr %24, ptr %4, align 8
  br label %42

25:                                               ; preds = %14
  %26 = load i64, ptr %7, align 8
  %27 = load ptr, ptr %8, align 8
  %28 = getelementptr inbounds %struct.lexbor_bst_entry, ptr %27, i32 0, i32 5
  %29 = load i64, ptr %28, align 8
  %30 = icmp ugt i64 %26, %29
  br i1 %30, label %31, label %35

31:                                               ; preds = %25
  %32 = load ptr, ptr %8, align 8
  %33 = getelementptr inbounds %struct.lexbor_bst_entry, ptr %32, i32 0, i32 1
  %34 = load ptr, ptr %33, align 8
  store ptr %34, ptr %8, align 8
  br label %39

35:                                               ; preds = %25
  %36 = load ptr, ptr %8, align 8
  %37 = getelementptr inbounds %struct.lexbor_bst_entry, ptr %36, i32 0, i32 2
  %38 = load ptr, ptr %37, align 8
  store ptr %38, ptr %8, align 8
  br label %39

39:                                               ; preds = %35, %31
  br label %40

40:                                               ; preds = %39
  br label %11

41:                                               ; preds = %11
  store ptr null, ptr %4, align 8
  br label %42

42:                                               ; preds = %41, %20
  %43 = load ptr, ptr %4, align 8
  ret ptr %43
}