; Function Attrs: nounwind uwtable
define hidden ptr @lexbor_bst_remove(ptr nocapture noundef %0, ptr nocapture noundef %1, i64 noundef %2) local_unnamed_addr #0 {
  %.015 = load ptr, ptr %1, align 8
  %.not16 = icmp eq ptr %.015, null
  br i1 %.not16, label %.loopexit, label %.lr.ph

.lr.ph:                                           ; preds = %3, %9
  %.017 = phi ptr [ %.0, %9 ], [ %.015, %3 ]
  %4 = getelementptr inbounds i8, ptr %.017, i64 40
  %5 = load i64, ptr %4, align 8
  %6 = icmp eq i64 %5, %2
  br i1 %6, label %7, label %9

7:                                                ; preds = %.lr.ph
  %8 = tail call ptr @lexbor_bst_remove_by_pointer(ptr noundef %0, ptr noundef nonnull %.017, ptr noundef nonnull %1)
  br label %.loopexit

9:                                                ; preds = %.lr.ph
  %10 = icmp ult i64 %5, %2
  %.1.in.v = select i1 %10, i64 8, i64 16
  %.1.in = getelementptr inbounds i8, ptr %.017, i64 %.1.in.v
  %.0 = load ptr, ptr %.1.in, align 8
  %.not = icmp eq ptr %.0, null
  br i1 %.not, label %.loopexit, label %.lr.ph

.loopexit:                                        ; preds = %9, %3, %7
  %.011 = phi ptr [ %8, %7 ], [ null, %3 ], [ null, %9 ]
  ret ptr %.011
}